Certificate:
    Data:
        Version: 3 (0x2)
        Serial Number: 1 (0x1)
    Signature Algorithm: sm2sign-with-sm3
        Issuer: C=CN, ST=ZJ, L=HZ, O=FLK, OU=FLK_sslvpn, CN=RootCA/emailAddress=fulankeservices@flksec.com
        Validity
            Not Before: Aug 17 06:38:17 2021 GMT
            Not After : Aug 15 06:38:17 2031 GMT
        Subject: C=CN, ST=ZJ, O=FLK, OU=FLK_sslvpn, CN=ServerEnc/emailAddress=sslvpn@flksec.com
        Subject Public Key Info:
            Public Key Algorithm: id-ecPublicKey
                Public-Key: (256 bit)
                pub:
                    04:81:3f:a3:33:32:5f:65:85:c0:e1:2a:3c:8b:19:
                    30:18:87:ab:0c:7e:31:e7:eb:b6:b9:62:85:80:de:
                    0c:55:60:d2:5c:28:09:55:8d:5e:be:b5:90:2b:99:
                    d8:50:ae:6c:56:e4:51:2f:8a:cf:58:cb:53:2b:96:
                    bf:76:79:67:c8
                ASN1 OID: sm2p256v1
                NIST CURVE: SM2
        X509v3 extensions:
            X509v3 Basic Constraints: 
                CA:FALSE
            X509v3 Key Usage: 
                Key Encipherment
            Netscape Comment: 
                GmSSL Generated Certificate
            X509v3 Subject Key Identifier: 
                3F:37:67:95:AA:EE:8A:97:56:E6:6F:38:C5:09:2C:61:AF:C5:FA:58
            X509v3 Authority Key Identifier: 
                keyid:F4:50:6E:B2:48:DE:11:6E:D8:ED:23:49:B9:51:F9:25:56:04:71:FF

    Signature Algorithm: sm2sign-with-sm3
         30:45:02:20:4b:82:10:d2:f5:65:04:25:74:46:04:3f:5e:5e:
         42:31:97:74:6a:5a:ec:b5:43:59:20:14:43:51:9e:c7:db:22:
         02:21:00:b8:d5:71:c7:bb:97:1e:ec:4a:f3:ba:31:ef:1d:45:
         44:d9:a3:81:7b:88:01:1b:f0:da:4c:c6:fe:e7:29:b4:68
-----BEGIN CERTIFICATE-----
MIICcTCCAhegAwIBAgIBATAKBggqgRzPVQGDdTCBhjELMAkGA1UEBhMCQ04xCzAJ
BgNVBAgMAlpKMQswCQYDVQQHDAJIWjEMMAoGA1UECgwDRkxLMRMwEQYDVQQLDApG
TEtfc3NsdnBuMQ8wDQYDVQQDDAZSb290Q0ExKTAnBgkqhkiG9w0BCQEWGmZ1bGFu
a2VzZXJ2aWNlc0BmbGtzZWMuY29tMB4XDTIxMDgxNzA2MzgxN1oXDTMxMDgxNTA2
MzgxN1owczELMAkGA1UEBhMCQ04xCzAJBgNVBAgMAlpKMQwwCgYDVQQKDANGTEsx
EzARBgNVBAsMCkZMS19zc2x2cG4xEjAQBgNVBAMMCVNlcnZlckVuYzEgMB4GCSqG
SIb3DQEJARYRc3NsdnBuQGZsa3NlYy5jb20wWTATBgcqhkjOPQIBBggqgRzPVQGC
LQNCAASBP6MzMl9lhcDhKjyLGTAYh6sMfjHn67a5YoWA3gxVYNJcKAlVjV6+tZAr
mdhQrmxW5FEvis9Yy1Mrlr92eWfIo4GHMIGEMAkGA1UdEwQCMAAwCwYDVR0PBAQD
AgUgMCoGCWCGSAGG+EIBDQQdFhtHbVNTTCBHZW5lcmF0ZWQgQ2VydGlmaWNhdGUw
HQYDVR0OBBYEFD83Z5Wq7oqXVuZvOMUJLGGvxfpYMB8GA1UdIwQYMBaAFPRQbrJI
3hFu2O0jSblR+SVWBHH/MAoGCCqBHM9VAYN1A0gAMEUCIEuCENL1ZQQldEYEP15e
QjGXdGpa7LVDWSAUQ1Gex9siAiEAuNVxx7uXHuxK87ox7x1FRNmjgXuIARvw2kzG
/ucptGg=
-----END CERTIFICATE-----
